; Function Attrs: inlinehint mustprogress nofree norecurse nosync nounwind willreturn memory(read, inaccessiblemem: none) uwtable
define internal noundef i32 @"_ZZL25ShowDemoWindowMultiSelectP19ImGuiDemoWindowDataEN3$_08__invokeEP26ImGuiSelectionBasicStoragei"(ptr noundef readonly captures(none) %0, i32 noundef %1) #23 align 2 {
  %3 = getelementptr i8, ptr %0, i64 8
  %.val = load ptr, ptr %3, align 8, !tbaa !422
  %4 = getelementptr i8, ptr %.val, i64 8
  %.val.val = load ptr, ptr %4, align 8, !tbaa !427
  %5 = sext i32 %1 to i64
  %6 = getelementptr inbounds i32, ptr %.val.val, i64 %5
  %7 = load i32, ptr %6, align 4, !tbaa !54
  ret i32 %7
}